target datalayout = "e-m:e-p270:32:32-p271:32:32-p272:64:64-i64:64-i128:128-f80:128-n8:16:32:64-S128"
target triple = "x86_64-pc-linux-gnu"

%struct._cms_typehandler_struct = type { i32, ptr, ptr, ptr, ptr, ptr, i32 }
%struct._cms_io_handler = type { ptr, ptr, i32, i32, [256 x i8], ptr, ptr, ptr, ptr, ptr }

@.str.13 = private unnamed_addr constant [27 x i8] c"Too many named colors '%d'\00", align 1
@.str.14 = private unnamed_addr constant [33 x i8] c"Too many device coordinates '%d'\00", align 1

; Function Attrs: nounwind uwtable
define internal ptr @Type_NamedColor_Read(ptr noundef %0, ptr noundef %1, ptr noundef %2, i32 noundef %3) #0 {
  %5 = alloca ptr, align 8
  %6 = alloca ptr, align 8
  %7 = alloca ptr, align 8
  %8 = alloca ptr, align 8
  %9 = alloca i32, align 4
  %10 = alloca i32, align 4
  %11 = alloca i32, align 4
  %12 = alloca i32, align 4
  %13 = alloca [32 x i8], align 16
  %14 = alloca [32 x i8], align 16
  %15 = alloca ptr, align 8
  %16 = alloca i32, align 4
  %17 = alloca [3 x i16], align 2
  %18 = alloca [16 x i16], align 16
  %19 = alloca [33 x i8], align 16
  store ptr %0, ptr %6, align 8
  store ptr %1, ptr %7, align 8
  store ptr %2, ptr %8, align 8
  store i32 %3, ptr %9, align 4
  %20 = load ptr, ptr %8, align 8
  store i32 0, ptr %20, align 4
  %21 = load ptr, ptr %7, align 8
  %22 = call i32 @_cmsReadUInt32Number(ptr noundef %21, ptr noundef %10)
  %23 = icmp ne i32 %22, 0
  br i1 %23, label %25, label %24

24:                                               ; preds = %4
  store ptr null, ptr %5, align 8
  br label %125

25:                                               ; preds = %4
  %26 = load ptr, ptr %7, align 8
  %27 = call i32 @_cmsReadUInt32Number(ptr noundef %26, ptr noundef %11)
  %28 = icmp ne i32 %27, 0
  br i1 %28, label %30, label %29

29:                                               ; preds = %25
  store ptr null, ptr %5, align 8
  br label %125

30:                                               ; preds = %25
  %31 = load ptr, ptr %7, align 8
  %32 = call i32 @_cmsReadUInt32Number(ptr noundef %31, ptr noundef %12)
  %33 = icmp ne i32 %32, 0
  br i1 %33, label %35, label %34

34:                                               ; preds = %30
  store ptr null, ptr %5, align 8
  br label %125

35:                                               ; preds = %30
  %36 = load ptr, ptr %7, align 8
  %37 = getelementptr inbounds %struct._cms_io_handler, ptr %36, i32 0, i32 5
  %38 = load ptr, ptr %37, align 8
  %39 = load ptr, ptr %7, align 8
  %40 = getelementptr inbounds [32 x i8], ptr %13, i64 0, i64 0
  %41 = call i32 %38(ptr noundef %39, ptr noundef %40, i32 noundef 32, i32 noundef 1)
  %42 = icmp ne i32 %41, 1
  br i1 %42, label %43, label %44

43:                                               ; preds = %35
  store ptr null, ptr %5, align 8
  br label %125

44:                                               ; preds = %35
  %45 = load ptr, ptr %7, align 8
  %46 = getelementptr inbounds %struct._cms_io_handler, ptr %45, i32 0, i32 5
  %47 = load ptr, ptr %46, align 8
  %48 = load ptr, ptr %7, align 8
  %49 = getelementptr inbounds [32 x i8], ptr %14, i64 0, i64 0
  %50 = call i32 %47(ptr noundef %48, ptr noundef %49, i32 noundef 32, i32 noundef 1)
  %51 = icmp ne i32 %50, 1
  br i1 %51, label %52, label %53

52:                                               ; preds = %44
  store ptr null, ptr %5, align 8
  br label %125

53:                                               ; preds = %44
  %54 = getelementptr inbounds [32 x i8], ptr %14, i64 0, i64 31
  store i8 0, ptr %54, align 1
  %55 = getelementptr inbounds [32 x i8], ptr %13, i64 0, i64 31
  store i8 0, ptr %55, align 1
  %56 = load ptr, ptr %6, align 8
  %57 = getelementptr inbounds %struct._cms_typehandler_struct, ptr %56, i32 0, i32 5
  %58 = load ptr, ptr %57, align 8
  %59 = load i32, ptr %11, align 4
  %60 = load i32, ptr %12, align 4
  %61 = getelementptr inbounds [32 x i8], ptr %13, i64 0, i64 0
  %62 = getelementptr inbounds [32 x i8], ptr %14, i64 0, i64 0
  %63 = call ptr @cmsAllocNamedColorList(ptr noundef %58, i32 noundef %59, i32 noundef %60, ptr noundef %61, ptr noundef %62)
  store ptr %63, ptr %15, align 8
  %64 = load ptr, ptr %15, align 8
  %65 = icmp eq ptr %64, null
  br i1 %65, label %66, label %71

66:                                               ; preds = %53
  %67 = load ptr, ptr %6, align 8
  %68 = getelementptr inbounds %struct._cms_typehandler_struct, ptr %67, i32 0, i32 5
  %69 = load ptr, ptr %68, align 8
  %70 = load i32, ptr %11, align 4
  call void (ptr, i32, ptr, ...) @cmsSignalError(ptr noundef %69, i32 noundef 2, ptr noundef @.str.13, i32 noundef %70)
  store ptr null, ptr %5, align 8
  br label %125

71:                                               ; preds = %53
  %72 = load i32, ptr %12, align 4
  %73 = icmp ugt i32 %72, 16
  br i1 %73, label %74, label %79

74:                                               ; preds = %71
  %75 = load ptr, ptr %6, align 8
  %76 = getelementptr inbounds %struct._cms_typehandler_struct, ptr %75, i32 0, i32 5
  %77 = load ptr, ptr %76, align 8
  %78 = load i32, ptr %12, align 4
  call void (ptr, i32, ptr, ...) @cmsSignalError(ptr noundef %77, i32 noundef 2, ptr noundef @.str.14, i32 noundef %78)
  br label %123

79:                                               ; preds = %71
  store i32 0, ptr %16, align 4
  br label %80

80:                                               ; preds = %117, %79
  %81 = load i32, ptr %16, align 4
  %82 = load i32, ptr %11, align 4
  %83 = icmp ult i32 %81, %82
  br i1 %83, label %84, label %120

84:                                               ; preds = %80
  %85 = getelementptr inbounds [16 x i16], ptr %18, i64 0, i64 0
  call void @llvm.memset.p0.i64(ptr align 16 %85, i8 0, i64 32, i1 false)
  %86 = load ptr, ptr %7, align 8
  %87 = getelementptr inbounds %struct._cms_io_handler, ptr %86, i32 0, i32 5
  %88 = load ptr, ptr %87, align 8
  %89 = load ptr, ptr %7, align 8
  %90 = getelementptr inbounds [33 x i8], ptr %19, i64 0, i64 0
  %91 = call i32 %88(ptr noundef %89, ptr noundef %90, i32 noundef 32, i32 noundef 1)
  %92 = icmp ne i32 %91, 1
  br i1 %92, label %93, label %94

93:                                               ; preds = %84
  br label %123

94:                                               ; preds = %84
  %95 = getelementptr inbounds [33 x i8], ptr %19, i64 0, i64 32
  store i8 0, ptr %95, align 16
  %96 = load ptr, ptr %7, align 8
  %97 = getelementptr inbounds [3 x i16], ptr %17, i64 0, i64 0
  %98 = call i32 @_cmsReadUInt16Array(ptr noundef %96, i32 noundef 3, ptr noundef %97)
  %99 = icmp ne i32 %98, 0
  br i1 %99, label %101, label %100

100:                                              ; preds = %94
  br label %123

101:                                              ; preds = %94
  %102 = load ptr, ptr %7, align 8
  %103 = load i32, ptr %12, align 4
  %104 = getelementptr inbounds [16 x i16], ptr %18, i64 0, i64 0
  %105 = call i32 @_cmsReadUInt16Array(ptr noundef %102, i32 noundef %103, ptr noundef %104)
  %106 = icmp ne i32 %105, 0
  br i1 %106, label %108, label %107

107:                                              ; preds = %101
  br label %123

108:                                              ; preds = %101
  %109 = load ptr, ptr %15, align 8
  %110 = getelementptr inbounds [33 x i8], ptr %19, i64 0, i64 0
  %111 = getelementptr inbounds [3 x i16], ptr %17, i64 0, i64 0
  %112 = getelementptr inbounds [16 x i16], ptr %18, i64 0, i64 0
  %113 = call i32 @cmsAppendNamedColor(ptr noundef %109, ptr noundef %110, ptr noundef %111, ptr noundef %112)
  %114 = icmp ne i32 %113, 0
  br i1 %114, label %116, label %115

115:                                              ; preds = %108
  br label %123

116:                                              ; preds = %108
  br label %117

117:                                              ; preds = %116
  %118 = load i32, ptr %16, align 4
  %119 = add i32 %118, 1
  store i32 %119, ptr %16, align 4
  br label %80, !llvm.loop !33

120:                                              ; preds = %80
  %121 = load ptr, ptr %8, align 8
  store i32 1, ptr %121, align 4
  %122 = load ptr, ptr %15, align 8
  store ptr %122, ptr %5, align 8
  br label %125

123:                                              ; preds = %115, %107, %100, %93, %74
  %124 = load ptr, ptr %15, align 8
  call void @cmsFreeNamedColorList(ptr noundef %124)
  store ptr null, ptr %5, align 8
  br label %125

125:                                              ; preds = %123, %120, %66, %52, %43, %34, %29, %24
  %126 = load ptr, ptr %5, align 8
  ret ptr %126
}