; Function Attrs: nounwind uwtable
define internal ptr @Type_NamedColor_Read(ptr nocapture noundef readonly %0, ptr noundef %1, ptr nocapture noundef writeonly %2, i32 %3) #0 {
  %5 = alloca i32, align 4
  %6 = alloca i32, align 4
  %7 = alloca i32, align 4
  %8 = alloca [32 x i8], align 16
  %9 = alloca [32 x i8], align 16
  %10 = alloca [3 x i16], align 2
  %11 = alloca [16 x i16], align 16
  %12 = alloca [33 x i8], align 16
  store i32 0, ptr %2, align 4
  %13 = call i32 @_cmsReadUInt32Number(ptr noundef %1, ptr noundef nonnull %5) #13
  %.not = icmp eq i32 %13, 0
  br i1 %.not, label %58, label %14

14:                                               ; preds = %4
  %15 = call i32 @_cmsReadUInt32Number(ptr noundef %1, ptr noundef nonnull %6) #13
  %.not25 = icmp eq i32 %15, 0
  br i1 %.not25, label %58, label %16

16:                                               ; preds = %14
  %17 = call i32 @_cmsReadUInt32Number(ptr noundef %1, ptr noundef nonnull %7) #13
  %.not26 = icmp eq i32 %17, 0
  br i1 %.not26, label %58, label %18

18:                                               ; preds = %16
  %19 = getelementptr inbounds i8, ptr %1, i64 280
  %20 = load ptr, ptr %19, align 8
  %21 = call i32 %20(ptr noundef %1, ptr noundef nonnull %8, i32 noundef 32, i32 noundef 1) #13
  %.not27 = icmp eq i32 %21, 1
  br i1 %.not27, label %22, label %58

22:                                               ; preds = %18
  %23 = load ptr, ptr %19, align 8
  %24 = call i32 %23(ptr noundef nonnull %1, ptr noundef nonnull %9, i32 noundef 32, i32 noundef 1) #13
  %.not28 = icmp eq i32 %24, 1
  br i1 %.not28, label %25, label %58

25:                                               ; preds = %22
  %26 = getelementptr inbounds i8, ptr %9, i64 31
  store i8 0, ptr %26, align 1
  %27 = getelementptr inbounds i8, ptr %8, i64 31
  store i8 0, ptr %27, align 1
  %28 = getelementptr inbounds i8, ptr %0, i64 40
  %29 = load ptr, ptr %28, align 8
  %30 = load i32, ptr %6, align 4
  %31 = load i32, ptr %7, align 4
  %32 = call ptr @cmsAllocNamedColorList(ptr noundef %29, i32 noundef %30, i32 noundef %31, ptr noundef nonnull %8, ptr noundef nonnull %9) #13
  %33 = icmp eq ptr %32, null
  br i1 %33, label %34, label %37

34:                                               ; preds = %25
  %35 = load ptr, ptr %28, align 8
  %36 = load i32, ptr %6, align 4
  call void (ptr, i32, ptr, ...) @cmsSignalError(ptr noundef %35, i32 noundef 2, ptr noundef nonnull @.str.13, i32 noundef %36) #13
  br label %58

37:                                               ; preds = %25
  %38 = load i32, ptr %7, align 4
  %39 = icmp ugt i32 %38, 16
  br i1 %39, label %42, label %.preheader

.preheader:                                       ; preds = %37
  %40 = load i32, ptr %6, align 4
  %.not34 = icmp eq i32 %40, 0
  br i1 %.not34, label %._crit_edge, label %.lr.ph

.lr.ph:                                           ; preds = %.preheader
  %41 = getelementptr inbounds i8, ptr %12, i64 32
  br label %48

42:                                               ; preds = %37
  %43 = load ptr, ptr %28, align 8
  call void (ptr, i32, ptr, ...) @cmsSignalError(ptr noundef %43, i32 noundef 2, ptr noundef nonnull @.str.14, i32 noundef %38) #13
  br label %.loopexit

44:                                               ; preds = %56
  %45 = add nuw i32 %.033, 1
  %46 = load i32, ptr %6, align 4
  %47 = icmp ult i32 %45, %46
  br i1 %47, label %48, label %._crit_edge, !llvm.loop !35

48:                                               ; preds = %.lr.ph, %44
  %.033 = phi i32 [ 0, %.lr.ph ], [ %45, %44 ]
  call void @llvm.memset.p0.i64(ptr noundef nonnull align 16 dereferenceable(32) %11, i8 0, i64 32, i1 false)
  %49 = load ptr, ptr %19, align 8
  %50 = call i32 %49(ptr noundef nonnull %1, ptr noundef nonnull %12, i32 noundef 32, i32 noundef 1) #13
  %.not29 = icmp eq i32 %50, 1
  br i1 %.not29, label %51, label %.loopexit

51:                                               ; preds = %48
  store i8 0, ptr %41, align 16
  %52 = call i32 @_cmsReadUInt16Array(ptr noundef nonnull %1, i32 noundef 3, ptr noundef nonnull %10) #13
  %.not30 = icmp eq i32 %52, 0
  br i1 %.not30, label %.loopexit, label %53

53:                                               ; preds = %51
  %54 = load i32, ptr %7, align 4
  %55 = call i32 @_cmsReadUInt16Array(ptr noundef nonnull %1, i32 noundef %54, ptr noundef nonnull %11) #13
  %.not31 = icmp eq i32 %55, 0
  br i1 %.not31, label %.loopexit, label %56

56:                                               ; preds = %53
  %57 = call i32 @cmsAppendNamedColor(ptr noundef nonnull %32, ptr noundef nonnull %12, ptr noundef nonnull %10, ptr noundef nonnull %11) #13
  %.not32 = icmp eq i32 %57, 0
  br i1 %.not32, label %.loopexit, label %44

._crit_edge:                                      ; preds = %44, %.preheader
  store i32 1, ptr %2, align 4
  br label %58

.loopexit:                                        ; preds = %56, %53, %51, %48, %42
  call void @cmsFreeNamedColorList(ptr noundef nonnull %32) #13
  br label %58

58:                                               ; preds = %22, %18, %16, %14, %4, %.loopexit, %._crit_edge, %34
  %.022 = phi ptr [ null, %34 ], [ null, %.loopexit ], [ %32, %._crit_edge ], [ null, %4 ], [ null, %14 ], [ null, %16 ], [ null, %18 ], [ null, %22 ]
  ret ptr %.022
}